target datalayout = "e-m:e-p270:32:32-p271:32:32-p272:64:64-i64:64-i128:128-f80:128-n8:16:32:64-S128"
target triple = "x86_64-pc-linux-gnu"

%"class.LIEF::DEX::Type" = type { %"class.LIEF::Object", i32, %union.anon.39 }
%"class.LIEF::Object" = type { ptr }
%union.anon.39 = type { ptr }
%"class.__gnu_cxx::__normal_iterator" = type { ptr }
%"struct.std::_Vector_base.41" = type { %"struct.std::_Vector_base<LIEF::DEX::Type, std::allocator<LIEF::DEX::Type>>::_Vector_impl" }
%"struct.std::_Vector_base<LIEF::DEX::Type, std::allocator<LIEF::DEX::Type>>::_Vector_impl" = type { %"struct.std::_Vector_base<LIEF::DEX::Type, std::allocator<LIEF::DEX::Type>>::_Vector_impl_data" }
%"struct.std::_Vector_base<LIEF::DEX::Type, std::allocator<LIEF::DEX::Type>>::_Vector_impl_data" = type { ptr, ptr, ptr }

; Function Attrs: mustprogress nounwind uwtable
define linkonce_odr hidden void @_ZN9__gnu_cxx17__normal_iteratorIPKN4LIEF3DEX4TypeESt6vectorIS3_SaIS3_EEEC2ERKS5_(ptr noundef nonnull align 8 dereferenceable(8) %0, ptr noundef nonnull align 8 dereferenceable(8) %1) unnamed_addr #1 comdat align 2 {
  %3 = alloca ptr, align 8
  %4 = alloca ptr, align 8
  store ptr %0, ptr %3, align 8
  store ptr %1, ptr %4, align 8
  %5 = load ptr, ptr %3, align 8
  %6 = getelementptr inbounds %"class.__gnu_cxx::__normal_iterator", ptr %5, i32 0, i32 0
  %7 = load ptr, ptr %4, align 8
  %8 = load ptr, ptr %7, align 8
  store ptr %8, ptr %6, align 8
  ret void
}

; Function Attrs: mustprogress nounwind uwtable
define linkonce_odr hidden noundef nonnull align 8 dereferenceable(24) ptr @_ZNK9__gnu_cxx17__normal_iteratorIPKN4LIEF3DEX4TypeESt6vectorIS3_SaIS3_EEEdeEv(ptr noundef nonnull align 8 dereferenceable(8) %0) #1 comdat align 2 {
  %2 = alloca ptr, align 8
  store ptr %0, ptr %2, align 8
  %3 = load ptr, ptr %2, align 8
  %4 = getelementptr inbounds %"class.__gnu_cxx::__normal_iterator", ptr %3, i32 0, i32 0
  %5 = load ptr, ptr %4, align 8
  ret ptr %5
}

; Function Attrs: mustprogress nounwind uwtable
define linkonce_odr hidden ptr @_ZNK9__gnu_cxx17__normal_iteratorIPKN4LIEF3DEX4TypeESt6vectorIS3_SaIS3_EEEmiEl(ptr noundef nonnull align 8 dereferenceable(8) %0, i64 noundef %1) #1 comdat align 2 {
  %3 = alloca %"class.__gnu_cxx::__normal_iterator", align 8
  %4 = alloca ptr, align 8
  %5 = alloca i64, align 8
  %6 = alloca ptr, align 8
  store ptr %0, ptr %4, align 8
  store i64 %1, ptr %5, align 8
  %7 = load ptr, ptr %4, align 8
  %8 = getelementptr inbounds %"class.__gnu_cxx::__normal_iterator", ptr %7, i32 0, i32 0
  %9 = load ptr, ptr %8, align 8
  %10 = load i64, ptr %5, align 8
  %11 = sub i64 0, %10
  %12 = getelementptr inbounds %"class.LIEF::DEX::Type", ptr %9, i64 %11
  store ptr %12, ptr %6, align 8
  call void @_ZN9__gnu_cxx17__normal_iteratorIPKN4LIEF3DEX4TypeESt6vectorIS3_SaIS3_EEEC2ERKS5_(ptr noundef nonnull align 8 dereferenceable(8) %3, ptr noundef nonnull align 8 dereferenceable(8) %6) #14
  %13 = getelementptr inbounds %"class.__gnu_cxx::__normal_iterator", ptr %3, i32 0, i32 0
  %14 = load ptr, ptr %13, align 8
  ret ptr %14
}

; Function Attrs: mustprogress nounwind uwtable
define linkonce_odr hidden ptr @_ZNKSt6vectorIN4LIEF3DEX4TypeESaIS2_EE3endEv(ptr noundef nonnull align 8 dereferenceable(24) %0) #1 comdat align 2 {
  %2 = alloca %"class.__gnu_cxx::__normal_iterator", align 8
  %3 = alloca ptr, align 8
  store ptr %0, ptr %3, align 8
  %4 = load ptr, ptr %3, align 8
  %5 = getelementptr inbounds %"struct.std::_Vector_base.41", ptr %4, i32 0, i32 0
  %6 = getelementptr inbounds %"struct.std::_Vector_base<LIEF::DEX::Type, std::allocator<LIEF::DEX::Type>>::_Vector_impl_data", ptr %5, i32 0, i32 1
  call void @_ZN9__gnu_cxx17__normal_iteratorIPKN4LIEF3DEX4TypeESt6vectorIS3_SaIS3_EEEC2ERKS5_(ptr noundef nonnull align 8 dereferenceable(8) %2, ptr noundef nonnull align 8 dereferenceable(8) %6) #14
  %7 = getelementptr inbounds %"class.__gnu_cxx::__normal_iterator", ptr %2, i32 0, i32 0
  %8 = load ptr, ptr %7, align 8
  ret ptr %8
}

; Function Attrs: mustprogress nounwind uwtable
define linkonce_odr hidden noundef nonnull align 8 dereferenceable(24) ptr @_ZNKSt6vectorIN4LIEF3DEX4TypeESaIS2_EE4backEv(ptr noundef nonnull align 8 dereferenceable(24) %0) #1 comdat align 2 {
  %2 = alloca ptr, align 8
  %3 = alloca %"class.__gnu_cxx::__normal_iterator", align 8
  %4 = alloca %"class.__gnu_cxx::__normal_iterator", align 8
  store ptr %0, ptr %2, align 8
  %5 = load ptr, ptr %2, align 8
  %6 = call ptr @_ZNKSt6vectorIN4LIEF3DEX4TypeESaIS2_EE3endEv(ptr noundef nonnull align 8 dereferenceable(24) %5) #14
  %7 = getelementptr inbounds %"class.__gnu_cxx::__normal_iterator", ptr %4, i32 0, i32 0
  store ptr %6, ptr %7, align 8
  %8 = call ptr @_ZNK9__gnu_cxx17__normal_iteratorIPKN4LIEF3DEX4TypeESt6vectorIS3_SaIS3_EEEmiEl(ptr noundef nonnull align 8 dereferenceable(8) %4, i64 noundef 1) #14
  %9 = getelementptr inbounds %"class.__gnu_cxx::__normal_iterator", ptr %3, i32 0, i32 0
  store ptr %8, ptr %9, align 8
  %10 = call noundef nonnull align 8 dereferenceable(24) ptr @_ZNK9__gnu_cxx17__normal_iteratorIPKN4LIEF3DEX4TypeESt6vectorIS3_SaIS3_EEEdeEv(ptr noundef nonnull align 8 dereferenceable(8) %3) #14
  ret ptr %10
}

; Function Attrs: mustprogress nounwind uwtable
define noundef nonnull align 8 dereferenceable(24) ptr @_ZNK4LIEF3DEX4Type5arrayEv(ptr noundef nonnull align 8 dereferenceable(24) %0) #1 align 2 {
  %2 = alloca ptr, align 8
  store ptr %0, ptr %2, align 8
  %3 = load ptr, ptr %2, align 8
  %4 = getelementptr inbounds %"class.LIEF::DEX::Type", ptr %3, i32 0, i32 2
  %5 = load ptr, ptr %4, align 8
  ret ptr %5
}

; Function Attrs: mustprogress nounwind uwtable
define noundef i32 @_ZNK4LIEF3DEX4Type4typeEv(ptr noundef nonnull align 8 dereferenceable(24) %0) #1 align 2 {
  %2 = alloca ptr, align 8
  store ptr %0, ptr %2, align 8
  %3 = load ptr, ptr %2, align 8
  %4 = getelementptr inbounds %"class.LIEF::DEX::Type", ptr %3, i32 0, i32 1
  %5 = load i32, ptr %4, align 8
  ret i32 %5
}

; Function Attrs: mustprogress nounwind uwtable
define noundef i64 @_ZNK4LIEF3DEX4Type3dimEv(ptr noundef nonnull align 8 dereferenceable(24) %0) #1 align 2 {
  %2 = alloca i64, align 8
  %3 = alloca ptr, align 8
  %4 = alloca ptr, align 8
  %5 = alloca i64, align 8
  store ptr %0, ptr %3, align 8
  %6 = load ptr, ptr %3, align 8
  %7 = call noundef i32 @_ZNK4LIEF3DEX4Type4typeEv(ptr noundef nonnull align 8 dereferenceable(24) %6)
  %8 = icmp ne i32 %7, 3
  br i1 %8, label %9, label %10

9:                                                ; preds = %1
  store i64 0, ptr %2, align 8
  br label %23

10:                                               ; preds = %1
  store ptr %6, ptr %4, align 8
  store i64 0, ptr %5, align 8
  br label %11

11:                                               ; preds = %15, %10
  %12 = load ptr, ptr %4, align 8
  %13 = call noundef i32 @_ZNK4LIEF3DEX4Type4typeEv(ptr noundef nonnull align 8 dereferenceable(24) %12)
  %14 = icmp eq i32 %13, 3
  br i1 %14, label %15, label %21

15:                                               ; preds = %11
  %16 = load i64, ptr %5, align 8
  %17 = add i64 %16, 1
  store i64 %17, ptr %5, align 8
  %18 = load ptr, ptr %4, align 8
  %19 = call noundef nonnull align 8 dereferenceable(24) ptr @_ZNK4LIEF3DEX4Type5arrayEv(ptr noundef nonnull align 8 dereferenceable(24) %18)
  %20 = call noundef nonnull align 8 dereferenceable(24) ptr @_ZNKSt6vectorIN4LIEF3DEX4TypeESaIS2_EE4backEv(ptr noundef nonnull align 8 dereferenceable(24) %19) #14
  store ptr %20, ptr %4, align 8
  br label %11, !llvm.loop !6

21:                                               ; preds = %11
  %22 = load i64, ptr %5, align 8
  store i64 %22, ptr %2, align 8
  br label %23

23:                                               ; preds = %21, %9
  %24 = load i64, ptr %2, align 8
  ret i64 %24
}