; Function Attrs: mustprogress nofree norecurse nosync nounwind willreturn memory(read, inaccessiblemem: none) uwtable
define noundef i64 @_ZNK4LIEF3DEX4Type3dimEv(ptr nocapture noundef nonnull readonly align 8 dereferenceable(24) %0) local_unnamed_addr #8 align 2 {
  %2 = getelementptr inbounds i8, ptr %0, i64 8
  %3 = load i32, ptr %2, align 8
  %.not = icmp eq i32 %3, 3
  br i1 %.not, label %.lr.ph, label %.loopexit

.lr.ph:                                           ; preds = %1, %.lr.ph
  %.08 = phi i64 [ %4, %.lr.ph ], [ 0, %1 ]
  %.057 = phi ptr [ %9, %.lr.ph ], [ %0, %1 ]
  %4 = add i64 %.08, 1
  %5 = getelementptr inbounds i8, ptr %.057, i64 16
  %6 = load ptr, ptr %5, align 8
  %7 = getelementptr inbounds i8, ptr %6, i64 8
  %8 = load ptr, ptr %7, align 8
  %9 = getelementptr inbounds i8, ptr %8, i64 -24
  %10 = getelementptr inbounds i8, ptr %8, i64 -16
  %11 = load i32, ptr %10, align 8
  %12 = icmp eq i32 %11, 3
  br i1 %12, label %.lr.ph, label %.loopexit, !llvm.loop !7

.loopexit:                                        ; preds = %.lr.ph, %1
  %.06 = phi i64 [ 0, %1 ], [ %4, %.lr.ph ]
  ret i64 %.06
}